target datalayout = "e-m:e-p270:32:32-p271:32:32-p272:64:64-i64:64-i128:128-f80:128-n8:16:32:64-S128"
target triple = "x86_64-pc-linux-gnu"

; Function Attrs: mustprogress uwtable
define void @_Z13ArcCharToWidePKcPwm13ACTW_ENCODING(ptr noundef %0, ptr noundef %1, i64 noundef %2, i32 noundef %3) #1 {
  %5 = alloca ptr, align 8
  %6 = alloca ptr, align 8
  %7 = alloca i64, align 8
  %8 = alloca i32, align 4
  store ptr %0, ptr %5, align 8
  store ptr %1, ptr %6, align 8
  store i64 %2, ptr %7, align 8
  store i32 %3, ptr %8, align 4
  %9 = load i32, ptr %8, align 4
  %10 = icmp eq i32 %9, 2
  br i1 %10, label %11, label %16

11:                                               ; preds = %4
  %12 = load ptr, ptr %5, align 8
  %13 = load ptr, ptr %6, align 8
  %14 = load i64, ptr %7, align 8
  %15 = call noundef zeroext i1 @_Z9UtfToWidePKcPwm(ptr noundef %12, ptr noundef %13, i64 noundef %14)
  br label %21

16:                                               ; preds = %4
  %17 = load ptr, ptr %5, align 8
  %18 = load ptr, ptr %6, align 8
  %19 = load i64, ptr %7, align 8
  %20 = call noundef zeroext i1 @_Z10CharToWidePKcPwm(ptr noundef %17, ptr noundef %18, i64 noundef %19)
  br label %21

21:                                               ; preds = %16, %11
  %22 = load i64, ptr %7, align 8
  %23 = icmp ugt i64 %22, 0
  br i1 %23, label %24, label %29

24:                                               ; preds = %21
  %25 = load ptr, ptr %6, align 8
  %26 = load i64, ptr %7, align 8
  %27 = sub i64 %26, 1
  %28 = getelementptr inbounds i32, ptr %25, i64 %27
  store i32 0, ptr %28, align 4
  br label %29

29:                                               ; preds = %24, %21
  ret void
}