; Function Attrs: mustprogress uwtable
define void @_Z13ArcCharToWidePKcPwm13ACTW_ENCODING(ptr noundef %0, ptr noundef %1, i64 noundef %2, i32 noundef %3) local_unnamed_addr #2 {
  %5 = icmp eq i32 %3, 2
  br i1 %5, label %6, label %8

6:                                                ; preds = %4
  %7 = tail call noundef zeroext i1 @_Z9UtfToWidePKcPwm(ptr noundef %0, ptr noundef %1, i64 noundef %2)
  br label %10

8:                                                ; preds = %4
  %9 = tail call noundef zeroext i1 @_Z10CharToWidePKcPwm(ptr noundef %0, ptr noundef %1, i64 noundef %2)
  br label %10

10:                                               ; preds = %8, %6
  %.not = icmp eq i64 %2, 0
  br i1 %.not, label %14, label %11

11:                                               ; preds = %10
  %12 = getelementptr i32, ptr %1, i64 %2
  %13 = getelementptr i8, ptr %12, i64 -4
  store i32 0, ptr %13, align 4
  br label %14

14:                                               ; preds = %11, %10
  ret void
}